; Function Attrs: mustprogress uwtable
define void @_ZN9grpc_core22OutlierDetectionConfig25FailurePercentageEjection12JsonPostLoadERKNS_12experimental4JsonERKNS_8JsonArgsEPNS_16ValidationErrorsE(ptr noundef nonnull readonly align 4 captures(none) dereferenceable(16) %0, ptr nonnull readnone align 8 captures(none) %1, ptr nonnull readnone align 8 captures(none) %2, ptr noundef %3) local_unnamed_addr #3 align 2 personality ptr @__gxx_personality_v0 {
  %5 = alloca %"class.grpc_core::ValidationErrors::ScopedField", align 8
  %6 = alloca %"class.grpc_core::ValidationErrors::ScopedField", align 8
  %7 = getelementptr inbounds nuw i8, ptr %0, i64 4
  %8 = load i32, ptr %7, align 4, !tbaa !20
  %9 = icmp ugt i32 %8, 100
  br i1 %9, label %10, label %17

10:                                               ; preds = %4
  call void @llvm.lifetime.start.p0(i64 8, ptr nonnull %5) #36
  store ptr %3, ptr %5, align 8, !tbaa !15
  tail call void @_ZN9grpc_core16ValidationErrors9PushFieldESt17basic_string_viewIcSt11char_traitsIcEE(ptr noundef nonnull align 8 dereferenceable(80) %3, i64 23, ptr nonnull @.str.4)
  invoke void @_ZN9grpc_core16ValidationErrors8AddErrorESt17basic_string_viewIcSt11char_traitsIcEE(ptr noundef nonnull align 8 dereferenceable(80) %3, i64 20, ptr nonnull @.str.5)
          to label %11 unwind label %15

11:                                               ; preds = %10
  invoke void @_ZN9grpc_core16ValidationErrors8PopFieldEv(ptr noundef nonnull align 8 dereferenceable(80) %3)
          to label %_ZN9grpc_core16ValidationErrors11ScopedFieldD2Ev.exit unwind label %12

12:                                               ; preds = %11
  %13 = landingpad { ptr, i32 }
          catch ptr null
  %14 = extractvalue { ptr, i32 } %13, 0
  tail call void @__clang_call_terminate(ptr %14) #38
  unreachable

_ZN9grpc_core16ValidationErrors11ScopedFieldD2Ev.exit: ; preds = %11
  call void @llvm.lifetime.end.p0(i64 8, ptr nonnull %5) #36
  br label %17

15:                                               ; preds = %10
  %16 = landingpad { ptr, i32 }
          cleanup
  call void @_ZN9grpc_core16ValidationErrors11ScopedFieldD2Ev(ptr noundef nonnull align 8 dereferenceable(8) %5) #36
  call void @llvm.lifetime.end.p0(i64 8, ptr nonnull %5) #36
  br label %28

17:                                               ; preds = %_ZN9grpc_core16ValidationErrors11ScopedFieldD2Ev.exit, %4
  %18 = load i32, ptr %0, align 4, !tbaa !22
  %19 = icmp ugt i32 %18, 100
  br i1 %19, label %20, label %27

20:                                               ; preds = %17
  call void @llvm.lifetime.start.p0(i64 8, ptr nonnull %6) #36
  store ptr %3, ptr %6, align 8, !tbaa !15
  tail call void @_ZN9grpc_core16ValidationErrors9PushFieldESt17basic_string_viewIcSt11char_traitsIcEE(ptr noundef nonnull align 8 dereferenceable(80) %3, i64 10, ptr nonnull @.str.7)
  invoke void @_ZN9grpc_core16ValidationErrors8AddErrorESt17basic_string_viewIcSt11char_traitsIcEE(ptr noundef nonnull align 8 dereferenceable(80) %3, i64 20, ptr nonnull @.str.5)
          to label %21 unwind label %25

21:                                               ; preds = %20
  invoke void @_ZN9grpc_core16ValidationErrors8PopFieldEv(ptr noundef nonnull align 8 dereferenceable(80) %3)
          to label %_ZN9grpc_core16ValidationErrors11ScopedFieldD2Ev.exit9 unwind label %22

22:                                               ; preds = %21
  %23 = landingpad { ptr, i32 }
          catch ptr null
  %24 = extractvalue { ptr, i32 } %23, 0
  tail call void @__clang_call_terminate(ptr %24) #38
  unreachable

_ZN9grpc_core16ValidationErrors11ScopedFieldD2Ev.exit9: ; preds = %21
  call void @llvm.lifetime.end.p0(i64 8, ptr nonnull %6) #36
  br label %27

25:                                               ; preds = %20
  %26 = landingpad { ptr, i32 }
          cleanup
  call void @_ZN9grpc_core16ValidationErrors11ScopedFieldD2Ev(ptr noundef nonnull align 8 dereferenceable(8) %6) #36
  call void @llvm.lifetime.end.p0(i64 8, ptr nonnull %6) #36
  br label %28

27:                                               ; preds = %_ZN9grpc_core16ValidationErrors11ScopedFieldD2Ev.exit9, %17
  ret void

28:                                               ; preds = %25, %15
  %.pn = phi { ptr, i32 } [ %26, %25 ], [ %16, %15 ]
  resume { ptr, i32 } %.pn
}